; ModuleID = '15/295.c'
source_filename = "15/295.c"
target datalayout = "e-m:e-p270:32:32-p271:32:32-p272:64:64-i64:64-f80:128-n8:16:32:64-S128"
target triple = "x86_64-pc-linux-gnu"

@.str = private unnamed_addr constant [3 x i8] c"%d\00", align 1

; Function Attrs: noinline nounwind uwtable
define dso_local i32 @main() #0 {
  %1 = alloca i32, align 4
  %2 = alloca i32, align 4
  %3 = alloca i32, align 4
  %4 = alloca i32, align 4
  %5 = alloca i32, align 4
  %6 = alloca i32, align 4
  %7 = alloca i32, align 4
  %8 = alloca i32, align 4
  %9 = alloca i32, align 4
  %10 = alloca i32, align 4
  %11 = alloca [100 x [100 x i32]], align 16
  store i32 0, i32* %1, align 4
  %12 = call i32 (i8*, ...) @__isoc99_scanf(i8* getelementptr inbounds ([3 x i8], [3 x i8]* @.str, i64 0, i64 0), i32* %2)
  store i32 0, i32* %3, align 4
  br label %13

13:                                               ; preds = %34, %0
  %14 = load i32, i32* %3, align 4
  %15 = load i32, i32* %2, align 4
  %16 = icmp slt i32 %14, %15
  br i1 %16, label %17, label %37

17:                                               ; preds = %13
  store i32 0, i32* %4, align 4
  br label %18

18:                                               ; preds = %30, %17
  %19 = load i32, i32* %4, align 4
  %20 = load i32, i32* %2, align 4
  %21 = icmp slt i32 %19, %20
  br i1 %21, label %22, label %33

22:                                               ; preds = %18
  %23 = load i32, i32* %3, align 4
  %24 = sext i32 %23 to i64
  %25 = getelementptr inbounds [100 x [100 x i32]], [100 x [100 x i32]]* %11, i64 0, i64 %24
  %26 = load i32, i32* %4, align 4
  %27 = sext i32 %26 to i64
  %28 = getelementptr inbounds [100 x i32], [100 x i32]* %25, i64 0, i64 %27
  %29 = call i32 (i8*, ...) @__isoc99_scanf(i8* getelementptr inbounds ([3 x i8], [3 x i8]* @.str, i64 0, i64 0), i32* %28)
  br label %30

30:                                               ; preds = %22
  %31 = load i32, i32* %4, align 4
  %32 = add nsw i32 %31, 1
  store i32 %32, i32* %4, align 4
  br label %18

33:                                               ; preds = %18
  br label %34

34:                                               ; preds = %33
  %35 = load i32, i32* %3, align 4
  %36 = add nsw i32 %35, 1
  store i32 %36, i32* %3, align 4
  br label %13

37:                                               ; preds = %13
  store i32 0, i32* %3, align 4
  br label %38

38:                                               ; preds = %66, %37
  %39 = load i32, i32* %3, align 4
  %40 = load i32, i32* %2, align 4
  %41 = icmp slt i32 %39, %40
  br i1 %41, label %42, label %69

42:                                               ; preds = %38
  store i32 0, i32* %4, align 4
  br label %43

43:                                               ; preds = %62, %42
  %44 = load i32, i32* %4, align 4
  %45 = load i32, i32* %2, align 4
  %46 = icmp slt i32 %44, %45
  br i1 %46, label %47, label %65

47:                                               ; preds = %43
  %48 = getelementptr inbounds [100 x [100 x i32]], [100 x [100 x i32]]* %11, i64 0, i64 0
  %49 = load i32, i32* %3, align 4
  %50 = sext i32 %49 to i64
  %51 = getelementptr inbounds [100 x i32], [100 x i32]* %48, i64 %50
  %52 = getelementptr inbounds [100 x i32], [100 x i32]* %51, i64 0, i64 0
  %53 = load i32, i32* %4, align 4
  %54 = sext i32 %53 to i64
  %55 = getelementptr inbounds i32, i32* %52, i64 %54
  %56 = load i32, i32* %55, align 4
  %57 = icmp eq i32 %56, 0
  br i1 %57, label %58, label %61

58:                                               ; preds = %47
  %59 = load i32, i32* %3, align 4
  store i32 %59, i32* %5, align 4
  %60 = load i32, i32* %4, align 4
  store i32 %60, i32* %6, align 4
  br label %65

61:                                               ; preds = %47
  br label %62

62:                                               ; preds = %61
  %63 = load i32, i32* %4, align 4
  %64 = add nsw i32 %63, 1
  store i32 %64, i32* %4, align 4
  br label %43

65:                                               ; preds = %58, %43
  br label %66

66:                                               ; preds = %65
  %67 = load i32, i32* %3, align 4
  %68 = add nsw i32 %67, 1
  store i32 %68, i32* %3, align 4
  br label %38

69:                                               ; preds = %38
  %70 = load i32, i32* %2, align 4
  %71 = sub nsw i32 %70, 1
  store i32 %71, i32* %7, align 4
  br label %72

72:                                               ; preds = %100, %69
  %73 = load i32, i32* %7, align 4
  %74 = icmp sge i32 %73, 0
  br i1 %74, label %75, label %103

75:                                               ; preds = %72
  %76 = load i32, i32* %2, align 4
  %77 = sub nsw i32 %76, 1
  store i32 %77, i32* %8, align 4
  br label %78

78:                                               ; preds = %96, %75
  %79 = load i32, i32* %8, align 4
  %80 = icmp sge i32 %79, 0
  br i1 %80, label %81, label %99

81:                                               ; preds = %78
  %82 = getelementptr inbounds [100 x [100 x i32]], [100 x [100 x i32]]* %11, i64 0, i64 0
  %83 = load i32, i32* %7, align 4
  %84 = sext i32 %83 to i64
  %85 = getelementptr inbounds [100 x i32], [100 x i32]* %82, i64 %84
  %86 = getelementptr inbounds [100 x i32], [100 x i32]* %85, i64 0, i64 0
  %87 = load i32, i32* %8, align 4
  %88 = sext i32 %87 to i64
  %89 = getelementptr inbounds i32, i32* %86, i64 %88
  %90 = load i32, i32* %89, align 4
  %91 = icmp eq i32 %90, 0
  br i1 %91, label %92, label %95

92:                                               ; preds = %81
  %93 = load i32, i32* %7, align 4
  store i32 %93, i32* %9, align 4
  %94 = load i32, i32* %8, align 4
  store i32 %94, i32* %10, align 4
  br label %99

95:                                               ; preds = %81
  br label %96

96:                                               ; preds = %95
  %97 = load i32, i32* %8, align 4
  %98 = add nsw i32 %97, -1
  store i32 %98, i32* %8, align 4
  br label %78

99:                                               ; preds = %92, %78
  br label %100

100:                                              ; preds = %99
  %101 = load i32, i32* %7, align 4
  %102 = add nsw i32 %101, -1
  store i32 %102, i32* %7, align 4
  br label %72

103:                                              ; preds = %72
  %104 = load i32, i32* %5, align 4
  %105 = load i32, i32* %9, align 4
  %106 = sub nsw i32 %104, %105
  %107 = sub nsw i32 %106, 1
  %108 = load i32, i32* %10, align 4
  %109 = load i32, i32* %6, align 4
  %110 = sub nsw i32 %108, %109
  %111 = sub nsw i32 %110, 1
  %112 = mul nsw i32 %107, %111
  %113 = call i32 (i8*, ...) @printf(i8* getelementptr inbounds ([3 x i8], [3 x i8]* @.str, i64 0, i64 0), i32 %112)
  ret i32 0
}

declare dso_local i32 @__isoc99_scanf(i8*, ...) #1

declare dso_local i32 @printf(i8*, ...) #1


!llvm.module.flags = !{!0}
!llvm.ident = !{!1}

!0 = !{i32 1, !"wchar_size", i32 4}
!1 = !{!"clang version 10.0.0-4ubuntu1 "}
